target datalayout = "e-m:e-p270:32:32-p271:32:32-p272:64:64-i64:64-i128:128-f80:128-n8:16:32:64-S128"
target triple = "x86_64-pc-linux-gnu"

%struct.slurm_step_id_msg = type { i64, i32, i32, i32 }

@destroy_job = internal global i32 0, align 4
@pending_job_id = internal global i32 0, align 4
@revoke_job = internal global i8 0, align 1
@is_het_job = internal global i8 0, align 1
@.str.11 = private unnamed_addr constant [58 x i8] c"Ignoring job_complete for job %u because our job ID is %u\00", align 1
@.str.12 = private unnamed_addr constant [21 x i8] c"Force Terminated %ps\00", align 1

; Function Attrs: nounwind uwtable
define internal void @_job_complete_handler(ptr noundef %0) #0 {
  %2 = alloca ptr, align 8
  store ptr %0, ptr %2, align 8
  %3 = load i8, ptr @is_het_job, align 1, !range !13, !noundef !14
  %4 = trunc i8 %3 to i1
  br i1 %4, label %20, label %5

5:                                                ; preds = %1
  %6 = load i32, ptr @pending_job_id, align 4
  %7 = icmp ne i32 %6, 0
  br i1 %7, label %8, label %20

8:                                                ; preds = %5
  %9 = load i32, ptr @pending_job_id, align 4
  %10 = load ptr, ptr %2, align 8
  %11 = getelementptr inbounds nuw %struct.slurm_step_id_msg, ptr %10, i32 0, i32 1
  %12 = load i32, ptr %11, align 8
  %13 = icmp ne i32 %9, %12
  br i1 %13, label %14, label %20

14:                                               ; preds = %8
  %15 = load ptr, ptr %2, align 8
  %16 = getelementptr inbounds nuw %struct.slurm_step_id_msg, ptr %15, i32 0, i32 1
  %17 = load i32, ptr %16, align 8
  %18 = load i32, ptr @pending_job_id, align 4
  %19 = call i32 (ptr, ...) @error(ptr noundef @.str.11, i32 noundef %17, i32 noundef %18)
  br label %34

20:                                               ; preds = %8, %5, %1
  %21 = load i32, ptr @destroy_job, align 4
  %22 = icmp ne i32 %21, 0
  br i1 %22, label %23, label %33

23:                                               ; preds = %20
  br label %24

24:                                               ; preds = %23
  br label %25

25:                                               ; preds = %24
  %26 = call i32 @get_log_level()
  %27 = icmp sge i32 %26, 3
  br i1 %27, label %28, label %30

28:                                               ; preds = %25
  %29 = load ptr, ptr %2, align 8
  call void (i32, ptr, ...) @log_var(i32 noundef 3, ptr noundef @.str.12, ptr noundef %29)
  br label %30

30:                                               ; preds = %28, %25
  br label %31

31:                                               ; preds = %30
  br label %32

32:                                               ; preds = %31
  br label %33

33:                                               ; preds = %32, %20
  store i8 1, ptr @revoke_job, align 1
  br label %34

34:                                               ; preds = %33, %14
  ret void
}