; Function Attrs: nounwind uwtable
define internal void @_job_complete_handler(ptr noundef %0) #0 {
  %.b5 = load i1, ptr @is_het_job, align 1
  %2 = load i32, ptr @pending_job_id, align 4
  %3 = icmp eq i32 %2, 0
  %or.cond.not = select i1 %.b5, i1 true, i1 %3
  br i1 %or.cond.not, label %9, label %4

4:                                                ; preds = %1
  %5 = getelementptr inbounds nuw i8, ptr %0, i64 8
  %6 = load i32, ptr %5, align 8
  %.not = icmp eq i32 %2, %6
  br i1 %.not, label %9, label %7

7:                                                ; preds = %4
  %8 = tail call i32 (ptr, ...) @error(ptr noundef nonnull @.str.11, i32 noundef %6, i32 noundef %2) #9
  br label %16

9:                                                ; preds = %4, %1
  %10 = load i32, ptr @destroy_job, align 4
  %.not7 = icmp eq i32 %10, 0
  br i1 %.not7, label %15, label %11

11:                                               ; preds = %9
  %12 = tail call i32 @get_log_level() #9
  %13 = icmp sgt i32 %12, 2
  br i1 %13, label %14, label %15

14:                                               ; preds = %11
  tail call void (i32, ptr, ...) @log_var(i32 noundef 3, ptr noundef nonnull @.str.12, ptr noundef %0) #9
  br label %15

15:                                               ; preds = %11, %14, %9
  store i1 true, ptr @revoke_job, align 1
  br label %16

16:                                               ; preds = %15, %7
  ret void
}